target datalayout = "e-m:e-p270:32:32-p271:32:32-p272:64:64-i64:64-i128:128-f80:128-n8:16:32:64-S128"
target triple = "x86_64-pc-linux-gnu"

%"class.icu_77::Hashtable" = type { ptr, %struct.UHashtable }
%struct.UHashtable = type { ptr, ptr, ptr, ptr, ptr, ptr, i32, i32, i32, i32, float, float, i8, i8 }

; Function Attrs: inlinehint mustprogress nounwind uwtable
define internal noundef signext i8 @_ZL9U_SUCCESS10UErrorCode(i32 noundef %0) #2 {
  %2 = alloca i32, align 4
  store i32 %0, ptr %2, align 4, !tbaa !15
  %3 = load i32, ptr %2, align 4, !tbaa !15
  %4 = icmp sle i32 %3, 0
  %5 = zext i1 %4 to i8
  ret i8 %5
}

; Function Attrs: inlinehint mustprogress uwtable
define linkonce_odr void @_ZN6icu_779Hashtable4initEPFi8UElementEPFaS1_S1_ES5_R10UErrorCode(ptr noundef nonnull align 8 dereferenceable(88) %0, ptr noundef %1, ptr noundef %2, ptr noundef %3, ptr noundef nonnull align 4 dereferenceable(4) %4) #3 comdat align 2 {
  %6 = alloca ptr, align 8
  %7 = alloca ptr, align 8
  %8 = alloca ptr, align 8
  %9 = alloca ptr, align 8
  %10 = alloca ptr, align 8
  store ptr %0, ptr %6, align 8, !tbaa !31
  store ptr %1, ptr %7, align 8, !tbaa !22
  store ptr %2, ptr %8, align 8, !tbaa !22
  store ptr %3, ptr %9, align 8, !tbaa !22
  store ptr %4, ptr %10, align 8, !tbaa !22
  %11 = load ptr, ptr %6, align 8
  %12 = load ptr, ptr %10, align 8, !tbaa !22
  %13 = load i32, ptr %12, align 4, !tbaa !15
  %14 = call noundef signext i8 @_ZL9U_FAILURE10UErrorCode(i32 noundef %13)
  %15 = icmp ne i8 %14, 0
  br i1 %15, label %16, label %17

16:                                               ; preds = %5
  br label %34

17:                                               ; preds = %5
  %18 = getelementptr inbounds nuw %"class.icu_77::Hashtable", ptr %11, i32 0, i32 1
  %19 = load ptr, ptr %7, align 8, !tbaa !22
  %20 = load ptr, ptr %8, align 8, !tbaa !22
  %21 = load ptr, ptr %9, align 8, !tbaa !22
  %22 = load ptr, ptr %10, align 8, !tbaa !22
  %23 = call ptr @uhash_init_77(ptr noundef %18, ptr noundef %19, ptr noundef %20, ptr noundef %21, ptr noundef %22)
  %24 = load ptr, ptr %10, align 8, !tbaa !22
  %25 = load i32, ptr %24, align 4, !tbaa !15
  %26 = call noundef signext i8 @_ZL9U_SUCCESS10UErrorCode(i32 noundef %25)
  %27 = icmp ne i8 %26, 0
  br i1 %27, label %28, label %34

28:                                               ; preds = %17
  %29 = getelementptr inbounds nuw %"class.icu_77::Hashtable", ptr %11, i32 0, i32 1
  %30 = getelementptr inbounds nuw %"class.icu_77::Hashtable", ptr %11, i32 0, i32 0
  store ptr %29, ptr %30, align 8, !tbaa !61
  %31 = getelementptr inbounds nuw %"class.icu_77::Hashtable", ptr %11, i32 0, i32 0
  %32 = load ptr, ptr %31, align 8, !tbaa !61
  %33 = call ptr @uhash_setKeyDeleter_77(ptr noundef %32, ptr noundef @uprv_deleteUObject_77)
  br label %34

34:                                               ; preds = %16, %28, %17
  ret void
}

; Function Attrs: inlinehint mustprogress uwtable
define linkonce_odr noundef ptr @_ZN6icu_779Hashtable18setValueComparatorEPFa8UElementS1_E(ptr noundef nonnull align 8 dereferenceable(88) %0, ptr noundef %1) #3 comdat align 2 {
  %3 = alloca ptr, align 8
  %4 = alloca ptr, align 8
  store ptr %0, ptr %3, align 8, !tbaa !31
  store ptr %1, ptr %4, align 8, !tbaa !22
  %5 = load ptr, ptr %3, align 8
  %6 = getelementptr inbounds nuw %"class.icu_77::Hashtable", ptr %5, i32 0, i32 0
  %7 = load ptr, ptr %6, align 8, !tbaa !61
  %8 = load ptr, ptr %4, align 8, !tbaa !22
  %9 = call ptr @uhash_setValueComparator_77(ptr noundef %7, ptr noundef %8)
  ret ptr %9
}

; Function Attrs: inlinehint mustprogress nounwind uwtable
define linkonce_odr void @_ZN6icu_779HashtableD2Ev(ptr noundef nonnull align 8 dereferenceable(88) %0) unnamed_addr #2 comdat align 2 personality ptr @__gxx_personality_v0 {
  %2 = alloca ptr, align 8
  store ptr %0, ptr %2, align 8, !tbaa !31
  %3 = load ptr, ptr %2, align 8
  %4 = getelementptr inbounds nuw %"class.icu_77::Hashtable", ptr %3, i32 0, i32 0
  %5 = load ptr, ptr %4, align 8, !tbaa !61
  %6 = icmp ne ptr %5, null
  br i1 %6, label %7, label %11

7:                                                ; preds = %1
  %8 = getelementptr inbounds nuw %"class.icu_77::Hashtable", ptr %3, i32 0, i32 0
  %9 = load ptr, ptr %8, align 8, !tbaa !61
  invoke void @uhash_close_77(ptr noundef %9)
          to label %10 unwind label %12

10:                                               ; preds = %7
  br label %11

11:                                               ; preds = %10, %1
  ret void

12:                                               ; preds = %7
  %13 = landingpad { ptr, i32 }
          catch ptr null
  %14 = extractvalue { ptr, i32 } %13, 0
  call void @__clang_call_terminate(ptr %14) #13
  unreachable
}

; Function Attrs: inlinehint mustprogress uwtable
define linkonce_odr void @_ZN6icu_779HashtableC2EaR10UErrorCode(ptr noundef nonnull align 8 dereferenceable(88) %0, i8 noundef signext %1, ptr noundef nonnull align 4 dereferenceable(4) %2) unnamed_addr #3 comdat align 2 {
  %4 = alloca ptr, align 8
  %5 = alloca i8, align 1
  %6 = alloca ptr, align 8
  store ptr %0, ptr %4, align 8, !tbaa !31
  store i8 %1, ptr %5, align 1, !tbaa !52
  store ptr %2, ptr %6, align 8, !tbaa !22
  %7 = load ptr, ptr %4, align 8
  %8 = getelementptr inbounds nuw %"class.icu_77::Hashtable", ptr %7, i32 0, i32 0
  store ptr null, ptr %8, align 8, !tbaa !61
  %9 = load i8, ptr %5, align 1, !tbaa !52
  %10 = icmp ne i8 %9, 0
  br i1 %10, label %11, label %12

11:                                               ; preds = %3
  br label %13

12:                                               ; preds = %3
  br label %13

13:                                               ; preds = %12, %11
  %14 = phi ptr [ @uhash_hashCaselessUnicodeString_77, %11 ], [ @uhash_hashUnicodeString_77, %12 ]
  %15 = load i8, ptr %5, align 1, !tbaa !52
  %16 = icmp ne i8 %15, 0
  br i1 %16, label %17, label %18

17:                                               ; preds = %13
  br label %19

18:                                               ; preds = %13
  br label %19

19:                                               ; preds = %18, %17
  %20 = phi ptr [ @uhash_compareCaselessUnicodeString_77, %17 ], [ @uhash_compareUnicodeString_77, %18 ]
  %21 = load ptr, ptr %6, align 8, !tbaa !22
  call void @_ZN6icu_779Hashtable4initEPFi8UElementEPFaS1_S1_ES5_R10UErrorCode(ptr noundef nonnull align 8 dereferenceable(88) %7, ptr noundef %14, ptr noundef %20, ptr noundef null, ptr noundef nonnull align 4 dereferenceable(4) %21)
  ret void
}

; Function Attrs: inlinehint mustprogress nounwind uwtable
define internal noundef signext i8 @_ZL9U_FAILURE10UErrorCode(i32 noundef %0) #2 {
  %2 = alloca i32, align 4
  store i32 %0, ptr %2, align 4, !tbaa !15
  %3 = load i32, ptr %2, align 4, !tbaa !15
  %4 = icmp sgt i32 %3, 0
  %5 = zext i1 %4 to i8
  ret i8 %5
}

; Function Attrs: mustprogress uwtable
define noundef ptr @_ZN6icu_7714TimeUnitFormat8initHashER10UErrorCode(ptr noundef nonnull align 8 dereferenceable(124) %0, ptr noundef nonnull align 4 dereferenceable(4) %1) #1 align 2 personality ptr @__gxx_personality_v0 {
  %3 = alloca ptr, align 8
  %4 = alloca ptr, align 8
  %5 = alloca ptr, align 8
  %6 = alloca ptr, align 8
  %7 = alloca ptr, align 8
  %8 = alloca i1, align 1
  %9 = alloca ptr, align 8
  %10 = alloca i32, align 4
  %11 = alloca i32, align 4
  store ptr %0, ptr %4, align 8, !tbaa !23
  store ptr %1, ptr %5, align 8, !tbaa !22
  %12 = load ptr, ptr %5, align 8, !tbaa !22
  %13 = load i32, ptr %12, align 4, !tbaa !15
  %14 = call noundef signext i8 @_ZL9U_FAILURE10UErrorCode(i32 noundef %13)
  %15 = icmp ne i8 %14, 0
  br i1 %15, label %16, label %17

16:                                               ; preds = %2
  store ptr null, ptr %3, align 8
  br label %51

17:                                               ; preds = %2
  call void @llvm.lifetime.start.p0(i64 8, ptr %6) #11
  %18 = call noundef ptr @_ZN6icu_777UMemorynwEm(i64 noundef 88) #11
  %19 = icmp eq ptr %18, null
  store i1 false, ptr %8, align 1
  br i1 %19, label %23, label %20

20:                                               ; preds = %17
  store ptr %18, ptr %7, align 8
  store i1 true, ptr %8, align 1
  %21 = load ptr, ptr %5, align 8, !tbaa !22
  invoke void @_ZN6icu_779HashtableC2EaR10UErrorCode(ptr noundef nonnull align 8 dereferenceable(88) %18, i8 noundef signext 1, ptr noundef nonnull align 4 dereferenceable(4) %21)
          to label %22 unwind label %28

22:                                               ; preds = %20
  br label %23

23:                                               ; preds = %22, %17
  %24 = phi ptr [ %18, %22 ], [ null, %17 ]
  store ptr %24, ptr %6, align 8, !tbaa !31
  %25 = icmp eq ptr %24, null
  br i1 %25, label %26, label %36

26:                                               ; preds = %23
  %27 = load ptr, ptr %5, align 8, !tbaa !22
  store i32 7, ptr %27, align 4, !tbaa !15
  store ptr null, ptr %3, align 8
  store i32 1, ptr %11, align 4
  br label %50

28:                                               ; preds = %20
  %29 = landingpad { ptr, i32 }
          cleanup
  %30 = extractvalue { ptr, i32 } %29, 0
  store ptr %30, ptr %9, align 8
  %31 = extractvalue { ptr, i32 } %29, 1
  store i32 %31, ptr %10, align 4
  %32 = load i1, ptr %8, align 1
  br i1 %32, label %33, label %35

33:                                               ; preds = %28
  %34 = load ptr, ptr %7, align 8
  call void @_ZN6icu_777UMemorydlEPv(ptr noundef %34) #11
  br label %35

35:                                               ; preds = %33, %28
  call void @llvm.lifetime.end.p0(i64 8, ptr %6) #11
  br label %53

36:                                               ; preds = %23
  %37 = load ptr, ptr %5, align 8, !tbaa !22
  %38 = load i32, ptr %37, align 4, !tbaa !15
  %39 = call noundef signext i8 @_ZL9U_FAILURE10UErrorCode(i32 noundef %38)
  %40 = icmp ne i8 %39, 0
  br i1 %40, label %41, label %46

41:                                               ; preds = %36
  %42 = load ptr, ptr %6, align 8, !tbaa !31
  %43 = icmp eq ptr %42, null
  br i1 %43, label %45, label %44

44:                                               ; preds = %41
  call void @_ZN6icu_779HashtableD2Ev(ptr noundef nonnull align 8 dereferenceable(88) %42) #11
  call void @_ZN6icu_777UMemorydlEPv(ptr noundef %42) #11
  br label %45

45:                                               ; preds = %44, %41
  store ptr null, ptr %3, align 8
  store i32 1, ptr %11, align 4
  br label %50

46:                                               ; preds = %36
  %47 = load ptr, ptr %6, align 8, !tbaa !31
  %48 = call noundef ptr @_ZN6icu_779Hashtable18setValueComparatorEPFa8UElementS1_E(ptr noundef nonnull align 8 dereferenceable(88) %47, ptr noundef @_ZN6icu_77L31tmutfmtHashTableValueComparatorE8UElementS0_)
  %49 = load ptr, ptr %6, align 8, !tbaa !31
  store ptr %49, ptr %3, align 8
  store i32 1, ptr %11, align 4
  br label %50

50:                                               ; preds = %46, %45, %26
  call void @llvm.lifetime.end.p0(i64 8, ptr %6) #11
  br label %51

51:                                               ; preds = %50, %16
  %52 = load ptr, ptr %3, align 8
  ret ptr %52

53:                                               ; preds = %35
  %54 = load ptr, ptr %9, align 8
  %55 = load i32, ptr %10, align 4
  %56 = insertvalue { ptr, i32 } poison, ptr %54, 0
  %57 = insertvalue { ptr, i32 } %56, i32 %55, 1
  resume { ptr, i32 } %57
}