; Function Attrs: mustprogress uwtable
define noundef ptr @_ZN6icu_7714TimeUnitFormat8initHashER10UErrorCode(ptr nonnull readnone align 8 captures(none) %0, ptr noundef nonnull align 4 dereferenceable(4) %1) local_unnamed_addr #1 align 2 personality ptr @__gxx_personality_v0 {
  %3 = load i32, ptr %1, align 4, !tbaa !13
  %4 = icmp slt i32 %3, 1
  br i1 %4, label %5, label %29

5:                                                ; preds = %2
  %6 = tail call noundef ptr @_ZN6icu_777UMemorynwEm(i64 noundef 88) #16
  %7 = icmp eq ptr %6, null
  br i1 %7, label %_ZN6icu_779HashtableC2EaR10UErrorCode.exit, label %8

8:                                                ; preds = %5
  store ptr null, ptr %6, align 8, !tbaa !31
  %9 = load i32, ptr %1, align 4, !tbaa !13
  %10 = icmp slt i32 %9, 1
  br i1 %10, label %11, label %_ZN6icu_779HashtableD2Ev.exit

11:                                               ; preds = %8
  %12 = getelementptr inbounds nuw i8, ptr %6, i64 8
  %13 = invoke ptr @uhash_init_77(ptr noundef nonnull %12, ptr noundef nonnull @uhash_hashCaselessUnicodeString_77, ptr noundef nonnull @uhash_compareCaselessUnicodeString_77, ptr noundef null, ptr noundef nonnull align 4 dereferenceable(4) %1)
          to label %.noexc unwind label %18

.noexc:                                           ; preds = %11
  %14 = load i32, ptr %1, align 4, !tbaa !13
  %15 = icmp sgt i32 %14, 0
  br i1 %15, label %.thread, label %16

16:                                               ; preds = %.noexc
  store ptr %12, ptr %6, align 8, !tbaa !31
  %17 = invoke ptr @uhash_setKeyDeleter_77(ptr noundef nonnull %12, ptr noundef nonnull @uprv_deleteUObject_77)
          to label %20 unwind label %18

_ZN6icu_779HashtableC2EaR10UErrorCode.exit:       ; preds = %5
  store i32 7, ptr %1, align 4, !tbaa !13
  br label %29

18:                                               ; preds = %16, %11
  %19 = landingpad { ptr, i32 }
          cleanup
  tail call void @_ZN6icu_777UMemorydlEPv(ptr noundef nonnull %6) #16
  resume { ptr, i32 } %19

20:                                               ; preds = %16
  %.pre = load i32, ptr %1, align 4, !tbaa !13
  %21 = icmp slt i32 %.pre, 1
  br i1 %21, label %26, label %.thread

.thread:                                          ; preds = %.noexc, %20
  %.pr = load ptr, ptr %6, align 8, !tbaa !31
  %.not.i = icmp eq ptr %.pr, null
  br i1 %.not.i, label %_ZN6icu_779HashtableD2Ev.exit, label %22

22:                                               ; preds = %.thread
  invoke void @uhash_close_77(ptr noundef nonnull %.pr)
          to label %_ZN6icu_779HashtableD2Ev.exit unwind label %23

23:                                               ; preds = %22
  %24 = landingpad { ptr, i32 }
          catch ptr null
  %25 = extractvalue { ptr, i32 } %24, 0
  tail call void @__clang_call_terminate(ptr %25) #18
  unreachable

_ZN6icu_779HashtableD2Ev.exit:                    ; preds = %8, %.thread, %22
  tail call void @_ZN6icu_777UMemorydlEPv(ptr noundef nonnull %6) #16
  br label %29

26:                                               ; preds = %20
  %27 = load ptr, ptr %6, align 8, !tbaa !31
  %28 = tail call noundef ptr @uhash_setValueComparator_77(ptr noundef %27, ptr noundef nonnull @_ZN6icu_77L31tmutfmtHashTableValueComparatorE8UElementS0_)
  br label %29

29:                                               ; preds = %_ZN6icu_779HashtableC2EaR10UErrorCode.exit, %_ZN6icu_779HashtableD2Ev.exit, %26, %2
  %.0 = phi ptr [ null, %2 ], [ null, %_ZN6icu_779HashtableC2EaR10UErrorCode.exit ], [ null, %_ZN6icu_779HashtableD2Ev.exit ], [ %6, %26 ]
  ret ptr %.0
}